target datalayout = "e-m:e-p270:32:32-p271:32:32-p272:64:64-i64:64-i128:128-f80:128-n8:16:32:64-S128"
target triple = "x86_64-pc-linux-gnu"

%struct.PartitionTupleRouting = type { ptr, ptr, ptr, i32, i32, ptr, ptr, i32, i32, ptr }
%struct.PartitionDispatchData = type { ptr, ptr, ptr, ptr, ptr, ptr, [0 x i32] }
%struct.ResultRelInfo = type { i32, i32, ptr, i32, ptr, ptr, i16, ptr, i8, ptr, ptr, ptr, i8, i8, ptr, ptr, ptr, ptr, ptr, ptr, ptr, ptr, ptr, ptr, i8, i32, i32, i32, ptr, ptr, ptr, ptr, ptr, ptr, ptr, i32, i32, ptr, ptr, ptr, ptr, [3 x ptr], ptr, ptr, ptr, i8, ptr, i8, ptr, ptr, ptr, ptr }
%struct.ModifyTableState = type { %struct.PlanState, i32, i8, i8, i32, ptr, ptr, %struct.EPQState, i8, i32, i32, i32, ptr, ptr, ptr, ptr, ptr, i32, ptr, ptr, double, double, double, ptr, ptr, ptr }
%struct.PlanState = type { i32, ptr, ptr, ptr, ptr, ptr, ptr, ptr, ptr, ptr, ptr, ptr, ptr, ptr, ptr, ptr, ptr, ptr, i8, ptr, ptr, ptr, ptr, ptr, i8, i8, i8, i8, i8, i8, i8, i8 }
%struct.EPQState = type { ptr, i32, ptr, ptr, ptr, ptr, ptr, ptr, ptr, ptr, ptr, ptr, ptr }
%struct.FdwRoutine = type { i32, ptr, ptr, ptr, ptr, ptr, ptr, ptr, ptr, ptr, ptr, ptr, ptr, ptr, ptr, ptr, ptr, ptr, ptr, ptr, ptr, ptr, ptr, ptr, ptr, ptr, ptr, ptr, ptr, ptr, ptr, ptr, ptr, ptr, ptr, ptr, ptr, ptr, ptr, ptr, ptr, ptr, ptr, ptr, ptr, ptr }

; Function Attrs: nounwind uwtable
define dso_local void @ExecCleanupTupleRouting(ptr noundef %0, ptr noundef %1) #0 {
  %3 = alloca ptr, align 8
  %4 = alloca ptr, align 8
  %5 = alloca i32, align 4
  %6 = alloca ptr, align 8
  %7 = alloca ptr, align 8
  %8 = alloca i32, align 4
  store ptr %0, ptr %3, align 8
  store ptr %1, ptr %4, align 8
  call void @llvm.lifetime.start.p0(i64 4, ptr %5) #9
  store i32 1, ptr %5, align 4
  br label %9

9:                                                ; preds = %35, %2
  %10 = load i32, ptr %5, align 4
  %11 = load ptr, ptr %4, align 8
  %12 = getelementptr inbounds nuw %struct.PartitionTupleRouting, ptr %11, i32 0, i32 3
  %13 = load i32, ptr %12, align 8
  %14 = icmp slt i32 %10, %13
  br i1 %14, label %15, label %38

15:                                               ; preds = %9
  call void @llvm.lifetime.start.p0(i64 8, ptr %6) #9
  %16 = load ptr, ptr %4, align 8
  %17 = getelementptr inbounds nuw %struct.PartitionTupleRouting, ptr %16, i32 0, i32 1
  %18 = load ptr, ptr %17, align 8
  %19 = load i32, ptr %5, align 4
  %20 = sext i32 %19 to i64
  %21 = getelementptr inbounds ptr, ptr %18, i64 %20
  %22 = load ptr, ptr %21, align 8
  store ptr %22, ptr %6, align 8
  %23 = load ptr, ptr %6, align 8
  %24 = getelementptr inbounds nuw %struct.PartitionDispatchData, ptr %23, i32 0, i32 0
  %25 = load ptr, ptr %24, align 8
  call void @table_close(ptr noundef %25, i32 noundef 0)
  %26 = load ptr, ptr %6, align 8
  %27 = getelementptr inbounds nuw %struct.PartitionDispatchData, ptr %26, i32 0, i32 4
  %28 = load ptr, ptr %27, align 8
  %29 = icmp ne ptr %28, null
  br i1 %29, label %30, label %34

30:                                               ; preds = %15
  %31 = load ptr, ptr %6, align 8
  %32 = getelementptr inbounds nuw %struct.PartitionDispatchData, ptr %31, i32 0, i32 4
  %33 = load ptr, ptr %32, align 8
  call void @ExecDropSingleTupleTableSlot(ptr noundef %33)
  br label %34

34:                                               ; preds = %30, %15
  call void @llvm.lifetime.end.p0(i64 8, ptr %6) #9
  br label %35

35:                                               ; preds = %34
  %36 = load i32, ptr %5, align 4
  %37 = add i32 %36, 1
  store i32 %37, ptr %5, align 4
  br label %9, !llvm.loop !16

38:                                               ; preds = %9
  store i32 0, ptr %5, align 4
  br label %39

39:                                               ; preds = %93, %38
  %40 = load i32, ptr %5, align 4
  %41 = load ptr, ptr %4, align 8
  %42 = getelementptr inbounds nuw %struct.PartitionTupleRouting, ptr %41, i32 0, i32 7
  %43 = load i32, ptr %42, align 8
  %44 = icmp slt i32 %40, %43
  br i1 %44, label %45, label %96

45:                                               ; preds = %39
  call void @llvm.lifetime.start.p0(i64 8, ptr %7) #9
  %46 = load ptr, ptr %4, align 8
  %47 = getelementptr inbounds nuw %struct.PartitionTupleRouting, ptr %46, i32 0, i32 5
  %48 = load ptr, ptr %47, align 8
  %49 = load i32, ptr %5, align 4
  %50 = sext i32 %49 to i64
  %51 = getelementptr inbounds ptr, ptr %48, i64 %50
  %52 = load ptr, ptr %51, align 8
  store ptr %52, ptr %7, align 8
  %53 = load ptr, ptr %7, align 8
  %54 = getelementptr inbounds nuw %struct.ResultRelInfo, ptr %53, i32 0, i32 22
  %55 = load ptr, ptr %54, align 8
  %56 = icmp ne ptr %55, null
  br i1 %56, label %57, label %75

57:                                               ; preds = %45
  %58 = load ptr, ptr %7, align 8
  %59 = getelementptr inbounds nuw %struct.ResultRelInfo, ptr %58, i32 0, i32 22
  %60 = load ptr, ptr %59, align 8
  %61 = getelementptr inbounds nuw %struct.FdwRoutine, ptr %60, i32 0, i32 20
  %62 = load ptr, ptr %61, align 8
  %63 = icmp ne ptr %62, null
  br i1 %63, label %64, label %75

64:                                               ; preds = %57
  %65 = load ptr, ptr %7, align 8
  %66 = getelementptr inbounds nuw %struct.ResultRelInfo, ptr %65, i32 0, i32 22
  %67 = load ptr, ptr %66, align 8
  %68 = getelementptr inbounds nuw %struct.FdwRoutine, ptr %67, i32 0, i32 20
  %69 = load ptr, ptr %68, align 8
  %70 = load ptr, ptr %3, align 8
  %71 = getelementptr inbounds nuw %struct.ModifyTableState, ptr %70, i32 0, i32 0
  %72 = getelementptr inbounds nuw %struct.PlanState, ptr %71, i32 0, i32 2
  %73 = load ptr, ptr %72, align 8
  %74 = load ptr, ptr %7, align 8
  call void %69(ptr noundef %73, ptr noundef %74)
  br label %75

75:                                               ; preds = %64, %57, %45
  %76 = load ptr, ptr %4, align 8
  %77 = getelementptr inbounds nuw %struct.PartitionTupleRouting, ptr %76, i32 0, i32 6
  %78 = load ptr, ptr %77, align 8
  %79 = load i32, ptr %5, align 4
  %80 = sext i32 %79 to i64
  %81 = getelementptr inbounds i8, ptr %78, i64 %80
  %82 = load i8, ptr %81, align 1, !range !4, !noundef !5
  %83 = trunc i8 %82 to i1
  br i1 %83, label %84, label %85

84:                                               ; preds = %75
  store i32 7, ptr %8, align 4
  br label %90

85:                                               ; preds = %75
  %86 = load ptr, ptr %7, align 8
  call void @ExecCloseIndices(ptr noundef %86)
  %87 = load ptr, ptr %7, align 8
  %88 = getelementptr inbounds nuw %struct.ResultRelInfo, ptr %87, i32 0, i32 2
  %89 = load ptr, ptr %88, align 8
  call void @table_close(ptr noundef %89, i32 noundef 0)
  store i32 0, ptr %8, align 4
  br label %90

90:                                               ; preds = %85, %84
  call void @llvm.lifetime.end.p0(i64 8, ptr %7) #9
  %91 = load i32, ptr %8, align 4
  switch i32 %91, label %97 [
    i32 0, label %92
    i32 7, label %93
  ]

92:                                               ; preds = %90
  br label %93

93:                                               ; preds = %92, %90
  %94 = load i32, ptr %5, align 4
  %95 = add i32 %94, 1
  store i32 %95, ptr %5, align 4
  br label %39, !llvm.loop !17

96:                                               ; preds = %39
  call void @llvm.lifetime.end.p0(i64 4, ptr %5) #9
  ret void

97:                                               ; preds = %90
  unreachable
}