; Function Attrs: nounwind uwtable
define dso_local void @ExecCleanupTupleRouting(ptr noundef readonly captures(none) %0, ptr noundef readonly captures(none) %1) local_unnamed_addr #0 {
  %3 = getelementptr inbounds nuw i8, ptr %1, i64 24
  %4 = load i32, ptr %3, align 8
  %5 = icmp sgt i32 %4, 1
  br i1 %5, label %.lr.ph, label %.preheader

.lr.ph:                                           ; preds = %2
  %6 = getelementptr inbounds nuw i8, ptr %1, i64 8
  br label %13

.preheader:                                       ; preds = %21, %2
  %7 = getelementptr inbounds nuw i8, ptr %1, i64 48
  %8 = load i32, ptr %7, align 8
  %9 = icmp sgt i32 %8, 0
  br i1 %9, label %.lr.ph28, label %._crit_edge

.lr.ph28:                                         ; preds = %.preheader
  %10 = getelementptr inbounds nuw i8, ptr %1, i64 32
  %11 = getelementptr inbounds nuw i8, ptr %0, i64 16
  %12 = getelementptr inbounds nuw i8, ptr %1, i64 40
  br label %25

13:                                               ; preds = %.lr.ph, %21
  %indvars.iv = phi i64 [ 1, %.lr.ph ], [ %indvars.iv.next, %21 ]
  %14 = load ptr, ptr %6, align 8
  %15 = getelementptr inbounds nuw ptr, ptr %14, i64 %indvars.iv
  %16 = load ptr, ptr %15, align 8
  %17 = load ptr, ptr %16, align 8
  tail call void @table_close(ptr noundef %17, i32 noundef 0) #9
  %18 = getelementptr inbounds nuw i8, ptr %16, i64 32
  %19 = load ptr, ptr %18, align 8
  %.not25 = icmp eq ptr %19, null
  br i1 %.not25, label %21, label %20

20:                                               ; preds = %13
  tail call void @ExecDropSingleTupleTableSlot(ptr noundef nonnull %19) #9
  br label %21

21:                                               ; preds = %20, %13
  %indvars.iv.next = add nuw nsw i64 %indvars.iv, 1
  %22 = load i32, ptr %3, align 8
  %23 = sext i32 %22 to i64
  %24 = icmp slt i64 %indvars.iv.next, %23
  br i1 %24, label %13, label %.preheader, !llvm.loop !13

25:                                               ; preds = %.lr.ph28, %44
  %indvars.iv30 = phi i64 [ 0, %.lr.ph28 ], [ %indvars.iv.next31, %44 ]
  %26 = load ptr, ptr %10, align 8
  %27 = getelementptr inbounds nuw ptr, ptr %26, i64 %indvars.iv30
  %28 = load ptr, ptr %27, align 8
  %29 = getelementptr inbounds nuw i8, ptr %28, i64 160
  %30 = load ptr, ptr %29, align 8
  %.not = icmp eq ptr %30, null
  br i1 %.not, label %36, label %31

31:                                               ; preds = %25
  %32 = getelementptr inbounds nuw i8, ptr %30, i64 160
  %33 = load ptr, ptr %32, align 8
  %.not24 = icmp eq ptr %33, null
  br i1 %.not24, label %36, label %34

34:                                               ; preds = %31
  %35 = load ptr, ptr %11, align 8
  tail call void %33(ptr noundef %35, ptr noundef nonnull %28) #9
  br label %36

36:                                               ; preds = %34, %31, %25
  %37 = load ptr, ptr %12, align 8
  %38 = getelementptr inbounds nuw i8, ptr %37, i64 %indvars.iv30
  %39 = load i8, ptr %38, align 1, !range !4, !noundef !5
  %40 = trunc nuw i8 %39 to i1
  br i1 %40, label %44, label %41

41:                                               ; preds = %36
  tail call void @ExecCloseIndices(ptr noundef nonnull %28) #9
  %42 = getelementptr inbounds nuw i8, ptr %28, i64 8
  %43 = load ptr, ptr %42, align 8
  tail call void @table_close(ptr noundef %43, i32 noundef 0) #9
  br label %44

44:                                               ; preds = %36, %41
  %indvars.iv.next31 = add nuw nsw i64 %indvars.iv30, 1
  %45 = load i32, ptr %7, align 8
  %46 = sext i32 %45 to i64
  %47 = icmp slt i64 %indvars.iv.next31, %46
  br i1 %47, label %25, label %._crit_edge, !llvm.loop !14

._crit_edge:                                      ; preds = %44, %.preheader
  ret void
}